; Function Attrs: mustprogress uwtable
define hidden void @_ZN5zxing12BinaryBitmap11getBlackRowEiNS_3RefINS_8BitArrayEEERNS_12ErrorHandlerE(ptr dead_on_unwind noalias writable writeonly sret(%"class.zxing::Ref.1") align 8 captures(none) %0, ptr noundef nonnull readonly align 8 captures(none) dereferenceable(32) %1, i32 noundef %2, ptr noundef readonly captures(none) %3, ptr noundef nonnull align 8 dereferenceable(48) %4) local_unnamed_addr #3 align 2 personality ptr @__gxx_personality_v0 {
  %6 = alloca %"class.zxing::Ref.1", align 8
  %7 = alloca %"class.zxing::Ref.1", align 8
  call void @llvm.lifetime.start.p0(i64 8, ptr nonnull %6) #9
  %8 = getelementptr inbounds nuw i8, ptr %1, i64 16
  %9 = load ptr, ptr %8, align 8, !tbaa !10
  %10 = load ptr, ptr %3, align 8, !tbaa !17
  %.not.i.i = icmp eq ptr %10, null
  br i1 %.not.i.i, label %_ZN5zxing3RefINS_8BitArrayEEC2ERKS2_.exit, label %11

11:                                               ; preds = %5
  %12 = getelementptr inbounds nuw i8, ptr %10, i64 8
  %13 = load i32, ptr %12, align 8, !tbaa !3
  %14 = add i32 %13, 1
  store i32 %14, ptr %12, align 8, !tbaa !3
  br label %_ZN5zxing3RefINS_8BitArrayEEC2ERKS2_.exit

_ZN5zxing3RefINS_8BitArrayEEC2ERKS2_.exit:        ; preds = %5, %11
  store ptr %10, ptr %7, align 8, !tbaa !17
  %15 = load ptr, ptr %9, align 8, !tbaa !8
  %16 = getelementptr inbounds nuw i8, ptr %15, i64 32
  %17 = load ptr, ptr %16, align 8
  invoke void %17(ptr dead_on_unwind nonnull writable sret(%"class.zxing::Ref.1") align 8 %6, ptr noundef nonnull align 8 dereferenceable(72) %9, i32 noundef %2, ptr noundef nonnull %7, ptr noundef nonnull align 8 dereferenceable(48) %4)
          to label %18 unwind label %34

18:                                               ; preds = %_ZN5zxing3RefINS_8BitArrayEEC2ERKS2_.exit
  %19 = load ptr, ptr %7, align 8, !tbaa !17
  %.not.i = icmp eq ptr %19, null
  br i1 %.not.i, label %_ZN5zxing3RefINS_8BitArrayEED2Ev.exit, label %20

20:                                               ; preds = %18
  %21 = getelementptr inbounds nuw i8, ptr %19, i64 8
  %22 = load i32, ptr %21, align 8, !tbaa !3
  %23 = add i32 %22, -1
  store i32 %23, ptr %21, align 8, !tbaa !3
  %24 = icmp eq i32 %23, 0
  br i1 %24, label %25, label %_ZN5zxing3RefINS_8BitArrayEED2Ev.exit

25:                                               ; preds = %20
  store i32 -559026175, ptr %21, align 8, !tbaa !3
  %26 = load ptr, ptr %19, align 8, !tbaa !8
  %27 = getelementptr inbounds nuw i8, ptr %26, i64 8
  %28 = load ptr, ptr %27, align 8
  call void %28(ptr noundef nonnull align 8 dereferenceable(12) %19) #9
  br label %_ZN5zxing3RefINS_8BitArrayEED2Ev.exit

_ZN5zxing3RefINS_8BitArrayEED2Ev.exit:            ; preds = %18, %20, %25
  %29 = load ptr, ptr %4, align 8, !tbaa !8
  %30 = getelementptr inbounds nuw i8, ptr %29, i64 16
  %31 = load ptr, ptr %30, align 8
  %32 = invoke noundef i32 %31(ptr noundef nonnull align 8 dereferenceable(48) %4)
          to label %33 unwind label %43

33:                                               ; preds = %_ZN5zxing3RefINS_8BitArrayEED2Ev.exit
  %.not = icmp eq i32 %32, 0
  %.pre = load ptr, ptr %6, align 8, !tbaa !17
  br i1 %.not, label %52, label %_ZN5zxing3RefINS_8BitArrayEEC2ERKS2_.exit12

34:                                               ; preds = %_ZN5zxing3RefINS_8BitArrayEEC2ERKS2_.exit
  %35 = landingpad { ptr, i32 }
          cleanup
  %36 = load ptr, ptr %7, align 8, !tbaa !17
  %.not.i7 = icmp eq ptr %36, null
  br i1 %.not.i7, label %_ZN5zxing3RefINS_8BitArrayEED2Ev.exit8, label %37

37:                                               ; preds = %34
  %38 = getelementptr inbounds nuw i8, ptr %36, i64 8
  %39 = load i32, ptr %38, align 8, !tbaa !3
  %40 = add i32 %39, -1
  store i32 %40, ptr %38, align 8, !tbaa !3
  %41 = icmp eq i32 %40, 0
  br i1 %41, label %42, label %_ZN5zxing3RefINS_8BitArrayEED2Ev.exit8

42:                                               ; preds = %37
  store i32 -559026175, ptr %38, align 8, !tbaa !3
  br label %_ZN5zxing3RefINS_8BitArrayEED2Ev.exit8.sink.split

43:                                               ; preds = %_ZN5zxing3RefINS_8BitArrayEED2Ev.exit
  %44 = landingpad { ptr, i32 }
          cleanup
  %45 = load ptr, ptr %6, align 8, !tbaa !17
  %.not.i9 = icmp eq ptr %45, null
  br i1 %.not.i9, label %_ZN5zxing3RefINS_8BitArrayEED2Ev.exit8, label %46

46:                                               ; preds = %43
  %47 = getelementptr inbounds nuw i8, ptr %45, i64 8
  %48 = load i32, ptr %47, align 8, !tbaa !3
  %49 = add i32 %48, -1
  store i32 %49, ptr %47, align 8, !tbaa !3
  %50 = icmp eq i32 %49, 0
  br i1 %50, label %51, label %_ZN5zxing3RefINS_8BitArrayEED2Ev.exit8

51:                                               ; preds = %46
  store i32 -559026175, ptr %47, align 8, !tbaa !3
  br label %_ZN5zxing3RefINS_8BitArrayEED2Ev.exit8.sink.split

52:                                               ; preds = %33
  %.not.i.i11 = icmp eq ptr %.pre, null
  br i1 %.not.i.i11, label %_ZN5zxing3RefINS_8BitArrayEEC2ERKS2_.exit12.thread, label %_ZN5zxing3RefINS_8BitArrayEEC2ERKS2_.exit12.thread17

_ZN5zxing3RefINS_8BitArrayEEC2ERKS2_.exit12.thread: ; preds = %52
  store ptr null, ptr %0, align 8, !tbaa !17
  br label %_ZN5zxing3RefINS_8BitArrayEED2Ev.exit14

_ZN5zxing3RefINS_8BitArrayEEC2ERKS2_.exit12.thread17: ; preds = %52
  %53 = getelementptr inbounds nuw i8, ptr %.pre, i64 8
  %54 = load i32, ptr %53, align 8, !tbaa !3
  %55 = add i32 %54, 1
  store i32 %55, ptr %53, align 8, !tbaa !3
  store ptr %.pre, ptr %0, align 8, !tbaa !17
  br label %56

_ZN5zxing3RefINS_8BitArrayEEC2ERKS2_.exit12:      ; preds = %33
  store ptr null, ptr %0, align 8, !tbaa !17
  %.not.i13 = icmp eq ptr %.pre, null
  br i1 %.not.i13, label %_ZN5zxing3RefINS_8BitArrayEED2Ev.exit14, label %56

56:                                               ; preds = %_ZN5zxing3RefINS_8BitArrayEEC2ERKS2_.exit12.thread17, %_ZN5zxing3RefINS_8BitArrayEEC2ERKS2_.exit12
  %57 = getelementptr inbounds nuw i8, ptr %.pre, i64 8
  %58 = load i32, ptr %57, align 8, !tbaa !3
  %59 = add i32 %58, -1
  store i32 %59, ptr %57, align 8, !tbaa !3
  %60 = icmp eq i32 %59, 0
  br i1 %60, label %61, label %_ZN5zxing3RefINS_8BitArrayEED2Ev.exit14

61:                                               ; preds = %56
  store i32 -559026175, ptr %57, align 8, !tbaa !3
  %62 = load ptr, ptr %.pre, align 8, !tbaa !8
  %63 = getelementptr inbounds nuw i8, ptr %62, i64 8
  %64 = load ptr, ptr %63, align 8
  call void %64(ptr noundef nonnull align 8 dereferenceable(12) %.pre) #9
  br label %_ZN5zxing3RefINS_8BitArrayEED2Ev.exit14

_ZN5zxing3RefINS_8BitArrayEED2Ev.exit14:          ; preds = %_ZN5zxing3RefINS_8BitArrayEEC2ERKS2_.exit12.thread, %_ZN5zxing3RefINS_8BitArrayEEC2ERKS2_.exit12, %56, %61
  call void @llvm.lifetime.end.p0(i64 8, ptr nonnull %6) #9
  ret void

_ZN5zxing3RefINS_8BitArrayEED2Ev.exit8.sink.split: ; preds = %42, %51
  %.sink23 = phi ptr [ %45, %51 ], [ %36, %42 ]
  %.pn.ph = phi { ptr, i32 } [ %44, %51 ], [ %35, %42 ]
  %65 = load ptr, ptr %.sink23, align 8, !tbaa !8
  %66 = getelementptr inbounds nuw i8, ptr %65, i64 8
  %67 = load ptr, ptr %66, align 8
  call void %67(ptr noundef nonnull align 8 dereferenceable(12) %.sink23) #9
  br label %_ZN5zxing3RefINS_8BitArrayEED2Ev.exit8

_ZN5zxing3RefINS_8BitArrayEED2Ev.exit8:           ; preds = %_ZN5zxing3RefINS_8BitArrayEED2Ev.exit8.sink.split, %46, %43, %37, %34
  %.pn = phi { ptr, i32 } [ %35, %34 ], [ %35, %37 ], [ %44, %43 ], [ %44, %46 ], [ %.pn.ph, %_ZN5zxing3RefINS_8BitArrayEED2Ev.exit8.sink.split ]
  call void @llvm.lifetime.end.p0(i64 8, ptr nonnull %6) #9
  resume { ptr, i32 } %.pn
}